; Function Attrs: mustprogress uwtable
define hidden void @_ZNK2cv9MatOp_Cmp6assignERKNS_7MatExprERNS_3MatEi(ptr nocapture nonnull readnone align 8 %0, ptr noundef nonnull align 8 dereferenceable(352) %1, ptr noundef nonnull align 8 dereferenceable(96) %2, i32 noundef %3) unnamed_addr #8 align 2 personality ptr @__gxx_personality_v0 {
  %5 = alloca %"class.cv::Mat", align 8
  %6 = alloca %"class.cv::_InputArray", align 8
  %7 = alloca %"class.cv::_InputArray", align 8
  %8 = alloca %"class.cv::_OutputArray", align 8
  %9 = alloca %"class.cv::_InputArray", align 8
  %10 = alloca %"class.cv::_InputArray", align 8
  %11 = alloca %"class.cv::_OutputArray", align 8
  %12 = alloca %"class.cv::_OutputArray", align 8
  call void @_ZN2cv3MatC1Ev(ptr noundef nonnull align 8 dereferenceable(96) %5) #21
  %13 = add i32 %3, 1
  %or.cond = icmp ult i32 %13, 2
  %14 = select i1 %or.cond, ptr %2, ptr %5
  %15 = getelementptr inbounds i8, ptr %1, i64 128
  %16 = load ptr, ptr %15, align 8
  %.not = icmp eq ptr %16, null
  br i1 %.not, label %32, label %17

17:                                               ; preds = %4
  %18 = getelementptr inbounds i8, ptr %1, i64 112
  %19 = getelementptr inbounds i8, ptr %1, i64 16
  %20 = getelementptr inbounds i8, ptr %6, i64 16
  store i32 0, ptr %20, align 8
  %21 = getelementptr inbounds i8, ptr %6, i64 20
  store i32 0, ptr %21, align 4
  store i32 16842752, ptr %6, align 8
  %22 = getelementptr inbounds i8, ptr %6, i64 8
  store ptr %19, ptr %22, align 8
  %23 = getelementptr inbounds i8, ptr %7, i64 16
  store i32 0, ptr %23, align 8
  %24 = getelementptr inbounds i8, ptr %7, i64 20
  store i32 0, ptr %24, align 4
  store i32 16842752, ptr %7, align 8
  %25 = getelementptr inbounds i8, ptr %7, i64 8
  store ptr %18, ptr %25, align 8
  %26 = getelementptr inbounds i8, ptr %8, i64 8
  %27 = getelementptr inbounds i8, ptr %8, i64 16
  store i64 0, ptr %27, align 8
  store i32 33619968, ptr %8, align 8
  store ptr %14, ptr %26, align 8
  %28 = getelementptr inbounds i8, ptr %1, i64 8
  %29 = load i32, ptr %28, align 8
  invoke void @_ZN2cv7compareERKNS_11_InputArrayES2_RKNS_12_OutputArrayEi(ptr noundef nonnull align 8 dereferenceable(24) %6, ptr noundef nonnull align 8 dereferenceable(24) %7, ptr noundef nonnull align 8 dereferenceable(24) %8, i32 noundef %29)
          to label %46 unwind label %30

30:                                               ; preds = %17
  %31 = landingpad { ptr, i32 }
          cleanup
  br label %53

32:                                               ; preds = %4
  %33 = getelementptr inbounds i8, ptr %1, i64 16
  %34 = getelementptr inbounds i8, ptr %9, i64 16
  store i32 0, ptr %34, align 8
  %35 = getelementptr inbounds i8, ptr %9, i64 20
  store i32 0, ptr %35, align 4
  store i32 16842752, ptr %9, align 8
  %36 = getelementptr inbounds i8, ptr %9, i64 8
  store ptr %33, ptr %36, align 8
  %37 = getelementptr inbounds i8, ptr %1, i64 304
  %38 = getelementptr inbounds i8, ptr %10, i64 16
  store i32 -1056833530, ptr %10, align 8
  %39 = getelementptr inbounds i8, ptr %10, i64 8
  store ptr %37, ptr %39, align 8
  store i64 4294967297, ptr %38, align 8
  %40 = getelementptr inbounds i8, ptr %11, i64 8
  %41 = getelementptr inbounds i8, ptr %11, i64 16
  store i64 0, ptr %41, align 8
  store i32 33619968, ptr %11, align 8
  store ptr %14, ptr %40, align 8
  %42 = getelementptr inbounds i8, ptr %1, i64 8
  %43 = load i32, ptr %42, align 8
  invoke void @_ZN2cv7compareERKNS_11_InputArrayES2_RKNS_12_OutputArrayEi(ptr noundef nonnull align 8 dereferenceable(24) %9, ptr noundef nonnull align 8 dereferenceable(24) %10, ptr noundef nonnull align 8 dereferenceable(24) %11, i32 noundef %43)
          to label %46 unwind label %44

44:                                               ; preds = %32
  %45 = landingpad { ptr, i32 }
          cleanup
  br label %53

46:                                               ; preds = %32, %17
  %.sroa.gep = getelementptr inbounds i8, ptr %2, i64 16
  %.sroa.gep32 = getelementptr inbounds i8, ptr %5, i64 16
  %.sroa.gep.val = load ptr, ptr %.sroa.gep, align 8
  %.sroa.gep32.val = load ptr, ptr %.sroa.gep32, align 8
  %.not2933 = icmp eq ptr %.sroa.gep32.val, %.sroa.gep.val
  %.not29 = select i1 %or.cond, i1 true, i1 %.not2933
  br i1 %.not29, label %52, label %47

47:                                               ; preds = %46
  %48 = getelementptr inbounds i8, ptr %12, i64 8
  %49 = getelementptr inbounds i8, ptr %12, i64 16
  store i64 0, ptr %49, align 8
  store i32 33619968, ptr %12, align 8
  store ptr %2, ptr %48, align 8
  invoke void @_ZNK2cv3Mat9convertToERKNS_12_OutputArrayEidd(ptr noundef nonnull align 8 dereferenceable(96) %5, ptr noundef nonnull align 8 dereferenceable(24) %12, i32 noundef %3, double noundef 1.000000e+00, double noundef 0.000000e+00)
          to label %52 unwind label %50

50:                                               ; preds = %47
  %51 = landingpad { ptr, i32 }
          cleanup
  br label %53

52:                                               ; preds = %47, %46
  call void @_ZN2cv3MatD1Ev(ptr noundef nonnull align 8 dereferenceable(96) %5) #21
  ret void

53:                                               ; preds = %44, %30, %50
  %.pn30 = phi { ptr, i32 } [ %51, %50 ], [ %31, %30 ], [ %45, %44 ]
  call void @_ZN2cv3MatD1Ev(ptr noundef nonnull align 8 dereferenceable(96) %5) #21
  resume { ptr, i32 } %.pn30
}